target datalayout = "e-m:e-p270:32:32-p271:32:32-p272:64:64-i64:64-i128:128-f80:128-n8:16:32:64-S128"
target triple = "x86_64-pc-linux-gnu"

%struct.hb_atomic_int_t = type { i32 }
%struct.hb_segment_properties_t = type { i32, i32, ptr, ptr, ptr }
%struct.indic_shape_plan_t = type <{ ptr, i8, i8, [2 x i8], %struct.hb_atomic_int_t, %struct.hb_indic_would_substitute_feature_t, %struct.hb_indic_would_substitute_feature_t, %struct.hb_indic_would_substitute_feature_t, %struct.hb_indic_would_substitute_feature_t, %struct.hb_indic_would_substitute_feature_t, [17 x i32], [4 x i8] }>
%struct.hb_indic_would_substitute_feature_t = type <{ %struct.hb_array_t, i8, [7 x i8] }>
%struct.hb_array_t = type { ptr, i32, i32 }
%struct.hb_ot_shape_plan_t = type <{ %struct.hb_segment_properties_t, ptr, %struct.hb_ot_map_t, ptr, i32, i32, i32, i32, i32, i32, i16, [6 x i8] }>
%struct.hb_ot_map_t = type { [2 x i32], [2 x i8], i32, %struct.hb_vector_t, [2 x %struct.hb_vector_t.0], [2 x %struct.hb_vector_t.1] }
%struct.hb_vector_t = type { i32, i32, ptr }
%struct.hb_vector_t.0 = type { i32, i32, ptr }
%struct.hb_vector_t.1 = type { i32, i32, ptr }

; Function Attrs: mustprogress uwtable
define internal void @_ZL21preprocess_text_indicPK18hb_ot_shape_plan_tP11hb_buffer_tP9hb_font_t(ptr noundef %0, ptr noundef %1, ptr noundef %2) #0 {
  %4 = alloca ptr, align 8
  %5 = alloca ptr, align 8
  %6 = alloca ptr, align 8
  %7 = alloca ptr, align 8
  store ptr %0, ptr %4, align 8
  store ptr %1, ptr %5, align 8
  store ptr %2, ptr %6, align 8
  %8 = load ptr, ptr %4, align 8
  %9 = getelementptr inbounds %struct.hb_ot_shape_plan_t, ptr %8, i32 0, i32 3
  %10 = load ptr, ptr %9, align 8
  store ptr %10, ptr %7, align 8
  %11 = load ptr, ptr %7, align 8
  %12 = getelementptr inbounds %struct.indic_shape_plan_t, ptr %11, i32 0, i32 2
  %13 = load i8, ptr %12, align 1
  %14 = trunc i8 %13 to i1
  br i1 %14, label %19, label %15

15:                                               ; preds = %3
  %16 = load ptr, ptr %4, align 8
  %17 = load ptr, ptr %5, align 8
  %18 = load ptr, ptr %6, align 8
  call void @_Z37_hb_preprocess_text_vowel_constraintsPK18hb_ot_shape_plan_tP11hb_buffer_tP9hb_font_t(ptr noundef %16, ptr noundef %17, ptr noundef %18)
  br label %19

19:                                               ; preds = %15, %3
  ret void
}