; Function Attrs: mustprogress uwtable
define internal void @_ZL21preprocess_text_indicPK18hb_ot_shape_plan_tP11hb_buffer_tP9hb_font_t(ptr noundef %0, ptr noundef %1, ptr noundef %2) #0 {
  %4 = getelementptr inbounds i8, ptr %0, i64 136
  %5 = load ptr, ptr %4, align 8
  %6 = getelementptr inbounds i8, ptr %5, i64 9
  %7 = load i8, ptr %6, align 1
  %8 = trunc i8 %7 to i1
  br i1 %8, label %10, label %9

9:                                                ; preds = %3
  tail call void @_Z37_hb_preprocess_text_vowel_constraintsPK18hb_ot_shape_plan_tP11hb_buffer_tP9hb_font_t(ptr noundef nonnull %0, ptr noundef %1, ptr noundef %2)
  br label %10

10:                                               ; preds = %9, %3
  ret void
}